target datalayout = "e-m:e-p270:32:32-p271:32:32-p272:64:64-i64:64-i128:128-f80:128-n8:16:32:64-S128"
target triple = "x86_64-pc-linux-gnu"

%struct.AVFilterContext = type { ptr, ptr, ptr, ptr, ptr, i32, ptr, ptr, i32, ptr, ptr, i32, i32, ptr, ptr, ptr, ptr, i32, ptr, i32, i32 }
%struct.GBlurContext = type { ptr, float, float, i32, i32, i32, i32, i32, [4 x i32], [4 x i32], ptr, ptr, float, float, float, float, float, float, i32, ptr, ptr, ptr }
%struct.AVFilterLink = type { ptr, ptr, ptr, ptr, i32, i32, i32, i32, %struct.AVRational, i32, i32, i32, %struct.AVChannelLayout, %struct.AVRational, ptr, i32, %struct.AVFilterFormatsConfig, %struct.AVFilterFormatsConfig }
%struct.AVChannelLayout = type { i32, i32, %union.anon.1, ptr }
%union.anon.1 = type { i64 }
%struct.AVRational = type { i32, i32 }
%struct.AVFilterFormatsConfig = type { ptr, ptr, ptr, ptr, ptr }
%struct.AVPixFmtDescriptor = type { ptr, i8, i8, i8, i64, [4 x %struct.AVComponentDescriptor], ptr }
%struct.AVComponentDescriptor = type { i32, i32, i32, i32, i32 }

; Function Attrs: nounwind uwtable
define internal void @ff_gblur_init(ptr noundef %0) #2 {
  %2 = alloca ptr, align 8
  store ptr %0, ptr %2, align 8, !tbaa !22
  %3 = load ptr, ptr %2, align 8, !tbaa !22
  %4 = getelementptr inbounds nuw %struct.GBlurContext, ptr %3, i32 0, i32 11
  store ptr null, ptr %4, align 8, !tbaa !89
  %5 = load ptr, ptr %2, align 8, !tbaa !22
  %6 = getelementptr inbounds nuw %struct.GBlurContext, ptr %5, i32 0, i32 19
  store ptr @horiz_slice_c, ptr %6, align 8, !tbaa !91
  %7 = load ptr, ptr %2, align 8, !tbaa !22
  %8 = getelementptr inbounds nuw %struct.GBlurContext, ptr %7, i32 0, i32 20
  store ptr @verti_slice_c, ptr %8, align 8, !tbaa !94
  %9 = load ptr, ptr %2, align 8, !tbaa !22
  %10 = getelementptr inbounds nuw %struct.GBlurContext, ptr %9, i32 0, i32 21
  store ptr @postscale_c, ptr %10, align 8, !tbaa !97
  ret void
}

; Function Attrs: cold nounwind optsize uwtable
define internal void @uninit(ptr noundef %0) #0 {
  %2 = alloca ptr, align 8
  %3 = alloca ptr, align 8
  store ptr %0, ptr %2, align 8, !tbaa !4
  call void @llvm.lifetime.start.p0(i64 8, ptr %3) #8
  %4 = load ptr, ptr %2, align 8, !tbaa !4
  %5 = getelementptr inbounds nuw %struct.AVFilterContext, ptr %4, i32 0, i32 9
  %6 = load ptr, ptr %5, align 8, !tbaa !9
  store ptr %6, ptr %3, align 8, !tbaa !22
  %7 = load ptr, ptr %3, align 8, !tbaa !22
  %8 = getelementptr inbounds nuw %struct.GBlurContext, ptr %7, i32 0, i32 10
  call void @av_freep(ptr noundef %8)
  %9 = load ptr, ptr %3, align 8, !tbaa !22
  %10 = getelementptr inbounds nuw %struct.GBlurContext, ptr %9, i32 0, i32 11
  call void @av_freep(ptr noundef %10)
  call void @llvm.lifetime.end.p0(i64 8, ptr %3) #8
  ret void
}

; Function Attrs: nounwind uwtable
define internal i32 @config_input(ptr noundef %0) #2 {
  %2 = alloca i32, align 4
  %3 = alloca ptr, align 8
  %4 = alloca ptr, align 8
  %5 = alloca ptr, align 8
  %6 = alloca i32, align 4
  store ptr %0, ptr %3, align 8, !tbaa !24
  call void @llvm.lifetime.start.p0(i64 8, ptr %4) #8
  %7 = load ptr, ptr %3, align 8, !tbaa !24
  %8 = getelementptr inbounds nuw %struct.AVFilterLink, ptr %7, i32 0, i32 5
  %9 = load i32, ptr %8, align 4, !tbaa !69
  %10 = call ptr @av_pix_fmt_desc_get(i32 noundef %9)
  store ptr %10, ptr %4, align 8, !tbaa !70
  call void @llvm.lifetime.start.p0(i64 8, ptr %5) #8
  %11 = load ptr, ptr %3, align 8, !tbaa !24
  %12 = getelementptr inbounds nuw %struct.AVFilterLink, ptr %11, i32 0, i32 2
  %13 = load ptr, ptr %12, align 8, !tbaa !28
  %14 = getelementptr inbounds nuw %struct.AVFilterContext, ptr %13, i32 0, i32 9
  %15 = load ptr, ptr %14, align 8, !tbaa !9
  store ptr %15, ptr %5, align 8, !tbaa !22
  %16 = load ptr, ptr %3, align 8, !tbaa !24
  %17 = getelementptr inbounds nuw %struct.AVFilterLink, ptr %16, i32 0, i32 2
  %18 = load ptr, ptr %17, align 8, !tbaa !28
  call void @uninit(ptr noundef %18) #9
  %19 = load ptr, ptr %4, align 8, !tbaa !70
  %20 = getelementptr inbounds nuw %struct.AVPixFmtDescriptor, ptr %19, i32 0, i32 5
  %21 = getelementptr inbounds [4 x %struct.AVComponentDescriptor], ptr %20, i64 0, i64 0
  %22 = getelementptr inbounds nuw %struct.AVComponentDescriptor, ptr %21, i32 0, i32 4
  %23 = load i32, ptr %22, align 8, !tbaa !72
  %24 = load ptr, ptr %5, align 8, !tbaa !22
  %25 = getelementptr inbounds nuw %struct.GBlurContext, ptr %24, i32 0, i32 6
  store i32 %23, ptr %25, align 4, !tbaa !53
  %26 = load ptr, ptr %4, align 8, !tbaa !70
  %27 = getelementptr inbounds nuw %struct.AVPixFmtDescriptor, ptr %26, i32 0, i32 4
  %28 = load i64, ptr %27, align 8, !tbaa !74
  %29 = and i64 %28, 512
  %30 = icmp ne i64 %29, 0
  %31 = xor i1 %30, true
  %32 = xor i1 %31, true
  %33 = zext i1 %32 to i32
  %34 = load ptr, ptr %5, align 8, !tbaa !22
  %35 = getelementptr inbounds nuw %struct.GBlurContext, ptr %34, i32 0, i32 5
  store i32 %33, ptr %35, align 8, !tbaa !54
  %36 = load ptr, ptr %4, align 8, !tbaa !70
  %37 = getelementptr inbounds nuw %struct.AVPixFmtDescriptor, ptr %36, i32 0, i32 2
  %38 = load i8, ptr %37, align 1, !tbaa !77
  %39 = call i1 @llvm.is.constant.i8(i8 %38)
  br i1 %39, label %51, label %40

40:                                               ; preds = %1
  %41 = load ptr, ptr %3, align 8, !tbaa !24
  %42 = getelementptr inbounds nuw %struct.AVFilterLink, ptr %41, i32 0, i32 6
  %43 = load i32, ptr %42, align 8, !tbaa !43
  %44 = sub nsw i32 0, %43
  %45 = load ptr, ptr %4, align 8, !tbaa !70
  %46 = getelementptr inbounds nuw %struct.AVPixFmtDescriptor, ptr %45, i32 0, i32 2
  %47 = load i8, ptr %46, align 1, !tbaa !77
  %48 = zext i8 %47 to i32
  %49 = ashr i32 %44, %48
  %50 = sub nsw i32 0, %49
  br label %67

51:                                               ; preds = %1
  %52 = load ptr, ptr %3, align 8, !tbaa !24
  %53 = getelementptr inbounds nuw %struct.AVFilterLink, ptr %52, i32 0, i32 6
  %54 = load i32, ptr %53, align 8, !tbaa !43
  %55 = load ptr, ptr %4, align 8, !tbaa !70
  %56 = getelementptr inbounds nuw %struct.AVPixFmtDescriptor, ptr %55, i32 0, i32 2
  %57 = load i8, ptr %56, align 1, !tbaa !77
  %58 = zext i8 %57 to i32
  %59 = shl i32 1, %58
  %60 = add nsw i32 %54, %59
  %61 = sub nsw i32 %60, 1
  %62 = load ptr, ptr %4, align 8, !tbaa !70
  %63 = getelementptr inbounds nuw %struct.AVPixFmtDescriptor, ptr %62, i32 0, i32 2
  %64 = load i8, ptr %63, align 1, !tbaa !77
  %65 = zext i8 %64 to i32
  %66 = ashr i32 %61, %65
  br label %67

67:                                               ; preds = %51, %40
  %68 = phi i32 [ %50, %40 ], [ %66, %51 ]
  %69 = load ptr, ptr %5, align 8, !tbaa !22
  %70 = getelementptr inbounds nuw %struct.GBlurContext, ptr %69, i32 0, i32 8
  %71 = getelementptr inbounds [4 x i32], ptr %70, i64 0, i64 2
  store i32 %68, ptr %71, align 4, !tbaa !45
  %72 = load ptr, ptr %5, align 8, !tbaa !22
  %73 = getelementptr inbounds nuw %struct.GBlurContext, ptr %72, i32 0, i32 8
  %74 = getelementptr inbounds [4 x i32], ptr %73, i64 0, i64 1
  store i32 %68, ptr %74, align 4, !tbaa !45
  %75 = load ptr, ptr %3, align 8, !tbaa !24
  %76 = getelementptr inbounds nuw %struct.AVFilterLink, ptr %75, i32 0, i32 6
  %77 = load i32, ptr %76, align 8, !tbaa !43
  %78 = load ptr, ptr %5, align 8, !tbaa !22
  %79 = getelementptr inbounds nuw %struct.GBlurContext, ptr %78, i32 0, i32 8
  %80 = getelementptr inbounds [4 x i32], ptr %79, i64 0, i64 3
  store i32 %77, ptr %80, align 4, !tbaa !45
  %81 = load ptr, ptr %5, align 8, !tbaa !22
  %82 = getelementptr inbounds nuw %struct.GBlurContext, ptr %81, i32 0, i32 8
  %83 = getelementptr inbounds [4 x i32], ptr %82, i64 0, i64 0
  store i32 %77, ptr %83, align 4, !tbaa !45
  %84 = load ptr, ptr %4, align 8, !tbaa !70
  %85 = getelementptr inbounds nuw %struct.AVPixFmtDescriptor, ptr %84, i32 0, i32 3
  %86 = load i8, ptr %85, align 2, !tbaa !78
  %87 = call i1 @llvm.is.constant.i8(i8 %86)
  br i1 %87, label %99, label %88

88:                                               ; preds = %67
  %89 = load ptr, ptr %3, align 8, !tbaa !24
  %90 = getelementptr inbounds nuw %struct.AVFilterLink, ptr %89, i32 0, i32 7
  %91 = load i32, ptr %90, align 4, !tbaa !44
  %92 = sub nsw i32 0, %91
  %93 = load ptr, ptr %4, align 8, !tbaa !70
  %94 = getelementptr inbounds nuw %struct.AVPixFmtDescriptor, ptr %93, i32 0, i32 3
  %95 = load i8, ptr %94, align 2, !tbaa !78
  %96 = zext i8 %95 to i32
  %97 = ashr i32 %92, %96
  %98 = sub nsw i32 0, %97
  br label %115

99:                                               ; preds = %67
  %100 = load ptr, ptr %3, align 8, !tbaa !24
  %101 = getelementptr inbounds nuw %struct.AVFilterLink, ptr %100, i32 0, i32 7
  %102 = load i32, ptr %101, align 4, !tbaa !44
  %103 = load ptr, ptr %4, align 8, !tbaa !70
  %104 = getelementptr inbounds nuw %struct.AVPixFmtDescriptor, ptr %103, i32 0, i32 3
  %105 = load i8, ptr %104, align 2, !tbaa !78
  %106 = zext i8 %105 to i32
  %107 = shl i32 1, %106
  %108 = add nsw i32 %102, %107
  %109 = sub nsw i32 %108, 1
  %110 = load ptr, ptr %4, align 8, !tbaa !70
  %111 = getelementptr inbounds nuw %struct.AVPixFmtDescriptor, ptr %110, i32 0, i32 3
  %112 = load i8, ptr %111, align 2, !tbaa !78
  %113 = zext i8 %112 to i32
  %114 = ashr i32 %109, %113
  br label %115

115:                                              ; preds = %99, %88
  %116 = phi i32 [ %98, %88 ], [ %114, %99 ]
  %117 = load ptr, ptr %5, align 8, !tbaa !22
  %118 = getelementptr inbounds nuw %struct.GBlurContext, ptr %117, i32 0, i32 9
  %119 = getelementptr inbounds [4 x i32], ptr %118, i64 0, i64 2
  store i32 %116, ptr %119, align 4, !tbaa !45
  %120 = load ptr, ptr %5, align 8, !tbaa !22
  %121 = getelementptr inbounds nuw %struct.GBlurContext, ptr %120, i32 0, i32 9
  %122 = getelementptr inbounds [4 x i32], ptr %121, i64 0, i64 1
  store i32 %116, ptr %122, align 4, !tbaa !45
  %123 = load ptr, ptr %3, align 8, !tbaa !24
  %124 = getelementptr inbounds nuw %struct.AVFilterLink, ptr %123, i32 0, i32 7
  %125 = load i32, ptr %124, align 4, !tbaa !44
  %126 = load ptr, ptr %5, align 8, !tbaa !22
  %127 = getelementptr inbounds nuw %struct.GBlurContext, ptr %126, i32 0, i32 9
  %128 = getelementptr inbounds [4 x i32], ptr %127, i64 0, i64 3
  store i32 %125, ptr %128, align 4, !tbaa !45
  %129 = load ptr, ptr %5, align 8, !tbaa !22
  %130 = getelementptr inbounds nuw %struct.GBlurContext, ptr %129, i32 0, i32 9
  %131 = getelementptr inbounds [4 x i32], ptr %130, i64 0, i64 0
  store i32 %125, ptr %131, align 4, !tbaa !45
  %132 = load ptr, ptr %3, align 8, !tbaa !24
  %133 = getelementptr inbounds nuw %struct.AVFilterLink, ptr %132, i32 0, i32 5
  %134 = load i32, ptr %133, align 4, !tbaa !69
  %135 = call i32 @av_pix_fmt_count_planes(i32 noundef %134)
  %136 = load ptr, ptr %5, align 8, !tbaa !22
  %137 = getelementptr inbounds nuw %struct.GBlurContext, ptr %136, i32 0, i32 18
  store i32 %135, ptr %137, align 8, !tbaa !46
  %138 = load ptr, ptr %3, align 8, !tbaa !24
  %139 = getelementptr inbounds nuw %struct.AVFilterLink, ptr %138, i32 0, i32 6
  %140 = load i32, ptr %139, align 8, !tbaa !43
  %141 = add nsw i32 %140, 64
  %142 = sub nsw i32 %141, 1
  %143 = and i32 %142, -64
  %144 = sext i32 %143 to i64
  %145 = load ptr, ptr %3, align 8, !tbaa !24
  %146 = getelementptr inbounds nuw %struct.AVFilterLink, ptr %145, i32 0, i32 7
  %147 = load i32, ptr %146, align 4, !tbaa !44
  %148 = add nsw i32 %147, 64
  %149 = sub nsw i32 %148, 1
  %150 = and i32 %149, -64
  %151 = sext i32 %150 to i64
  %152 = mul i64 %151, 4
  %153 = call ptr @av_malloc_array(i64 noundef %144, i64 noundef %152)
  %154 = load ptr, ptr %5, align 8, !tbaa !22
  %155 = getelementptr inbounds nuw %struct.GBlurContext, ptr %154, i32 0, i32 10
  store ptr %153, ptr %155, align 8, !tbaa !47
  %156 = load ptr, ptr %5, align 8, !tbaa !22
  %157 = getelementptr inbounds nuw %struct.GBlurContext, ptr %156, i32 0, i32 10
  %158 = load ptr, ptr %157, align 8, !tbaa !47
  %159 = icmp ne ptr %158, null
  br i1 %159, label %161, label %160

160:                                              ; preds = %115
  store i32 -12, ptr %2, align 4
  store i32 1, ptr %6, align 4
  br label %174

161:                                              ; preds = %115
  %162 = load ptr, ptr %5, align 8, !tbaa !22
  %163 = getelementptr inbounds nuw %struct.GBlurContext, ptr %162, i32 0, i32 2
  %164 = load float, ptr %163, align 4, !tbaa !42
  %165 = fcmp nsz olt float %164, 0.000000e+00
  br i1 %165, label %166, label %172

166:                                              ; preds = %161
  %167 = load ptr, ptr %5, align 8, !tbaa !22
  %168 = getelementptr inbounds nuw %struct.GBlurContext, ptr %167, i32 0, i32 1
  %169 = load float, ptr %168, align 8, !tbaa !37
  %170 = load ptr, ptr %5, align 8, !tbaa !22
  %171 = getelementptr inbounds nuw %struct.GBlurContext, ptr %170, i32 0, i32 2
  store float %169, ptr %171, align 4, !tbaa !42
  br label %172

172:                                              ; preds = %166, %161
  %173 = load ptr, ptr %5, align 8, !tbaa !22
  call void @ff_gblur_init(ptr noundef %173)
  store i32 0, ptr %2, align 4
  store i32 1, ptr %6, align 4
  br label %174

174:                                              ; preds = %172, %160
  call void @llvm.lifetime.end.p0(i64 8, ptr %5) #8
  call void @llvm.lifetime.end.p0(i64 8, ptr %4) #8
  %175 = load i32, ptr %2, align 4
  ret i32 %175
}