; Function Attrs: nounwind uwtable
define internal range(i32 -12, 1) i32 @config_input(ptr noundef readonly captures(none) %0) #2 {
  %2 = getelementptr inbounds nuw i8, ptr %0, i64 36
  %3 = load i32, ptr %2, align 4, !tbaa !66
  %4 = tail call ptr @av_pix_fmt_desc_get(i32 noundef %3) #8
  %5 = getelementptr inbounds nuw i8, ptr %0, i64 16
  %6 = load ptr, ptr %5, align 8, !tbaa !22
  %7 = getelementptr inbounds nuw i8, ptr %6, i64 72
  %8 = load ptr, ptr %7, align 8, !tbaa !4
  %9 = getelementptr inbounds nuw i8, ptr %8, i64 72
  tail call void @av_freep(ptr noundef nonnull %9) #8
  %10 = getelementptr inbounds nuw i8, ptr %8, i64 80
  tail call void @av_freep(ptr noundef nonnull %10) #8
  %11 = getelementptr inbounds nuw i8, ptr %4, i64 40
  %12 = load i32, ptr %11, align 8, !tbaa !67
  %13 = getelementptr inbounds nuw i8, ptr %8, i64 28
  store i32 %12, ptr %13, align 4, !tbaa !48
  %14 = getelementptr inbounds nuw i8, ptr %4, i64 16
  %15 = load i64, ptr %14, align 8, !tbaa !69
  %16 = trunc i64 %15 to i32
  %17 = lshr i32 %16, 9
  %18 = and i32 %17, 1
  %19 = getelementptr inbounds nuw i8, ptr %8, i64 24
  store i32 %18, ptr %19, align 8, !tbaa !49
  %20 = getelementptr inbounds nuw i8, ptr %0, i64 40
  %21 = load i32, ptr %20, align 8, !tbaa !41
  %22 = sub nsw i32 0, %21
  %23 = getelementptr inbounds nuw i8, ptr %4, i64 9
  %24 = load i8, ptr %23, align 1, !tbaa !72
  %25 = zext nneg i8 %24 to i32
  %26 = ashr i32 %22, %25
  %27 = sub nsw i32 0, %26
  %28 = getelementptr inbounds nuw i8, ptr %8, i64 36
  %29 = getelementptr inbounds nuw i8, ptr %8, i64 44
  store i32 %27, ptr %29, align 4, !tbaa !44
  %30 = getelementptr inbounds nuw i8, ptr %8, i64 40
  store i32 %27, ptr %30, align 4, !tbaa !44
  %31 = getelementptr inbounds nuw i8, ptr %0, i64 40
  %32 = load i32, ptr %31, align 8, !tbaa !41
  %33 = getelementptr inbounds nuw i8, ptr %8, i64 48
  store i32 %32, ptr %33, align 4, !tbaa !44
  store i32 %32, ptr %28, align 4, !tbaa !44
  %34 = getelementptr inbounds nuw i8, ptr %0, i64 44
  %35 = load i32, ptr %34, align 4, !tbaa !42
  %36 = sub nsw i32 0, %35
  %37 = getelementptr inbounds nuw i8, ptr %4, i64 10
  %38 = load i8, ptr %37, align 2, !tbaa !73
  %39 = zext nneg i8 %38 to i32
  %40 = ashr i32 %36, %39
  %41 = sub nsw i32 0, %40
  %42 = getelementptr inbounds nuw i8, ptr %8, i64 52
  %43 = getelementptr inbounds nuw i8, ptr %8, i64 60
  store i32 %41, ptr %43, align 4, !tbaa !44
  %44 = getelementptr inbounds nuw i8, ptr %8, i64 56
  store i32 %41, ptr %44, align 4, !tbaa !44
  %45 = getelementptr inbounds nuw i8, ptr %0, i64 44
  %46 = load i32, ptr %45, align 4, !tbaa !42
  %47 = getelementptr inbounds nuw i8, ptr %8, i64 64
  store i32 %46, ptr %47, align 4, !tbaa !44
  store i32 %46, ptr %42, align 4, !tbaa !44
  %48 = load i32, ptr %2, align 4, !tbaa !66
  %49 = tail call i32 @av_pix_fmt_count_planes(i32 noundef %48) #8
  %50 = getelementptr inbounds nuw i8, ptr %8, i64 112
  store i32 %49, ptr %50, align 8, !tbaa !43
  %51 = load i32, ptr %31, align 8, !tbaa !41
  %52 = add nsw i32 %51, 63
  %53 = and i32 %52, -64
  %54 = sext i32 %53 to i64
  %55 = load i32, ptr %45, align 4, !tbaa !42
  %56 = add nsw i32 %55, 63
  %57 = and i32 %56, -64
  %58 = sext i32 %57 to i64
  %59 = shl nsw i64 %58, 2
  %60 = tail call ptr @av_malloc_array(i64 noundef %54, i64 noundef %59) #8
  store ptr %60, ptr %9, align 8, !tbaa !45
  %.not = icmp eq ptr %60, null
  br i1 %.not, label %72, label %61

61:                                               ; preds = %1
  %62 = getelementptr inbounds nuw i8, ptr %8, i64 12
  %63 = load float, ptr %62, align 4, !tbaa !40
  %64 = fcmp nsz olt float %63, 0.000000e+00
  br i1 %64, label %65, label %68

65:                                               ; preds = %61
  %66 = getelementptr inbounds nuw i8, ptr %8, i64 8
  %67 = load float, ptr %66, align 8, !tbaa !34
  store float %67, ptr %62, align 4, !tbaa !40
  br label %68

68:                                               ; preds = %65, %61
  store ptr null, ptr %10, align 8, !tbaa !74
  %69 = getelementptr inbounds nuw i8, ptr %8, i64 120
  store ptr @horiz_slice_c, ptr %69, align 8, !tbaa !75
  %70 = getelementptr inbounds nuw i8, ptr %8, i64 128
  store ptr @verti_slice_c, ptr %70, align 8, !tbaa !76
  %71 = getelementptr inbounds nuw i8, ptr %8, i64 136
  store ptr @postscale_c, ptr %71, align 8, !tbaa !77
  br label %72

72:                                               ; preds = %1, %68
  %.0 = phi i32 [ 0, %68 ], [ -12, %1 ]
  ret i32 %.0
}